; Function Attrs: nounwind sspstrong uwtable
define internal fastcc noundef ptr @rb_node_while_new(ptr noundef captures(none) %0, ptr noundef %1, ptr noundef %2, i64 noundef range(i64 0, 2) %3, ptr noundef readonly captures(none) %4, ptr noundef readonly captures(none) %5, ptr noundef readonly captures(none) %6) unnamed_addr #0 {
  %8 = getelementptr i8, ptr %0, i64 288
  %.val.i = load ptr, ptr %8, align 8, !tbaa !130
  %9 = tail call ptr @rb_ast_newnode(ptr noundef %.val.i, i32 noundef range(i32 0, 115) 9, i64 noundef range(i64 32, 129) 88, i64 noundef 8) #35
  tail call void @rb_node_init(ptr noundef %9, i32 noundef range(i32 0, 115) 9) #35
  %10 = getelementptr inbounds nuw i8, ptr %9, i64 8
  tail call void @llvm.memcpy.p0.p0.i64(ptr noundef nonnull align 8 dereferenceable(16) %10, ptr noundef nonnull readonly align 4 dereferenceable(16) %4, i64 16, i1 false), !tbaa.struct !59
  %11 = load i32, ptr %4, align 4, !tbaa !53
  %12 = sext i32 %11 to i64
  %13 = load i64, ptr %9, align 8, !tbaa !72
  %14 = and i64 %13, 32767
  %15 = shl nsw i64 %12, 15
  %16 = or disjoint i64 %14, %15
  store i64 %16, ptr %9, align 8, !tbaa !72
  %17 = getelementptr inbounds nuw i8, ptr %0, i64 296
  %18 = load i32, ptr %17, align 8, !tbaa !207
  %19 = add i32 %18, 1
  store i32 %19, ptr %17, align 8, !tbaa !207
  %20 = getelementptr inbounds nuw i8, ptr %9, i64 24
  store i32 %18, ptr %20, align 8, !tbaa !208
  %21 = getelementptr inbounds nuw i8, ptr %9, i64 32
  store ptr %1, ptr %21, align 8, !tbaa !238
  %22 = getelementptr inbounds nuw i8, ptr %9, i64 40
  store ptr %2, ptr %22, align 8, !tbaa !240
  %23 = getelementptr inbounds nuw i8, ptr %9, i64 48
  store i64 %3, ptr %23, align 8, !tbaa !241
  %24 = getelementptr inbounds nuw i8, ptr %9, i64 56
  tail call void @llvm.memcpy.p0.p0.i64(ptr noundef nonnull align 8 dereferenceable(16) %24, ptr noundef nonnull align 4 dereferenceable(16) %5, i64 16, i1 false), !tbaa.struct !59
  %25 = getelementptr inbounds nuw i8, ptr %9, i64 72
  tail call void @llvm.memcpy.p0.p0.i64(ptr noundef nonnull align 8 dereferenceable(16) %25, ptr noundef nonnull align 4 dereferenceable(16) %6, i64 16, i1 false), !tbaa.struct !59
  ret ptr %9
}